target datalayout = "e-m:e-p270:32:32-p271:32:32-p272:64:64-i64:64-i128:128-f80:128-n8:16:32:64-S128"
target triple = "x86_64-unknown-linux-gnu"

%"struct.ClipperLib::IntPoint" = type { i64, i64 }

; Function Attrs: mustprogress nounwind uwtable
define hidden void @_ZN10ClipperLib10SwapPointsERNS_8IntPointES1_(ptr noundef nonnull align 8 dereferenceable(16) %pt1, ptr noundef nonnull align 8 dereferenceable(16) %pt2) #1 {
entry:
  %pt1.addr = alloca ptr, align 8
  %pt2.addr = alloca ptr, align 8
  %tmp = alloca %"struct.ClipperLib::IntPoint", align 8
  store ptr %pt1, ptr %pt1.addr, align 8
  store ptr %pt2, ptr %pt2.addr, align 8
  %0 = load ptr, ptr %pt1.addr, align 8
  call void @llvm.memcpy.p0.p0.i64(ptr align 8 %tmp, ptr align 8 %0, i64 16, i1 false)
  %1 = load ptr, ptr %pt2.addr, align 8
  %2 = load ptr, ptr %pt1.addr, align 8
  call void @llvm.memcpy.p0.p0.i64(ptr align 8 %2, ptr align 8 %1, i64 16, i1 false)
  %3 = load ptr, ptr %pt2.addr, align 8
  call void @llvm.memcpy.p0.p0.i64(ptr align 8 %3, ptr align 8 %tmp, i64 16, i1 false)
  ret void
}

; Function Attrs: mustprogress nounwind uwtable
define linkonce_odr hidden noundef i64 @_ZN10ClipperLib3AbsEx(i64 noundef %val) #1 comdat {
entry:
  %val.addr = alloca i64, align 8
  store i64 %val, ptr %val.addr, align 8
  %0 = load i64, ptr %val.addr, align 8
  %cmp = icmp slt i64 %0, 0
  br i1 %cmp, label %cond.true, label %cond.false

cond.true:                                        ; preds = %entry
  %1 = load i64, ptr %val.addr, align 8
  %sub = sub nsw i64 0, %1
  br label %cond.end

cond.false:                                       ; preds = %entry
  %2 = load i64, ptr %val.addr, align 8
  br label %cond.end

cond.end:                                         ; preds = %cond.false, %cond.true
  %cond = phi i64 [ %sub, %cond.true ], [ %2, %cond.false ]
  ret i64 %cond
}

; Function Attrs: mustprogress uwtable
define hidden noundef zeroext i1 @_ZN10ClipperLib17GetOverlapSegmentENS_8IntPointES0_S0_S0_RS0_S1_(i64 %pt1a.coerce0, i64 %pt1a.coerce1, i64 %pt1b.coerce0, i64 %pt1b.coerce1, i64 %pt2a.coerce0, i64 %pt2a.coerce1, ptr noundef byval(%"struct.ClipperLib::IntPoint") align 8 %pt2b, ptr noundef nonnull align 8 dereferenceable(16) %pt1, ptr noundef nonnull align 8 dereferenceable(16) %pt2) #0 {
entry:
  %retval = alloca i1, align 1
  %pt1a = alloca %"struct.ClipperLib::IntPoint", align 8
  %pt1b = alloca %"struct.ClipperLib::IntPoint", align 8
  %pt2a = alloca %"struct.ClipperLib::IntPoint", align 8
  %pt1.addr = alloca ptr, align 8
  %pt2.addr = alloca ptr, align 8
  %0 = getelementptr inbounds { i64, i64 }, ptr %pt1a, i32 0, i32 0
  store i64 %pt1a.coerce0, ptr %0, align 8
  %1 = getelementptr inbounds { i64, i64 }, ptr %pt1a, i32 0, i32 1
  store i64 %pt1a.coerce1, ptr %1, align 8
  %2 = getelementptr inbounds { i64, i64 }, ptr %pt1b, i32 0, i32 0
  store i64 %pt1b.coerce0, ptr %2, align 8
  %3 = getelementptr inbounds { i64, i64 }, ptr %pt1b, i32 0, i32 1
  store i64 %pt1b.coerce1, ptr %3, align 8
  %4 = getelementptr inbounds { i64, i64 }, ptr %pt2a, i32 0, i32 0
  store i64 %pt2a.coerce0, ptr %4, align 8
  %5 = getelementptr inbounds { i64, i64 }, ptr %pt2a, i32 0, i32 1
  store i64 %pt2a.coerce1, ptr %5, align 8
  store ptr %pt1, ptr %pt1.addr, align 8
  store ptr %pt2, ptr %pt2.addr, align 8
  %X = getelementptr inbounds %"struct.ClipperLib::IntPoint", ptr %pt1a, i32 0, i32 0
  %6 = load i64, ptr %X, align 8
  %X1 = getelementptr inbounds %"struct.ClipperLib::IntPoint", ptr %pt1b, i32 0, i32 0
  %7 = load i64, ptr %X1, align 8
  %sub = sub nsw i64 %6, %7
  %call = call noundef i64 @_ZN10ClipperLib3AbsEx(i64 noundef %sub)
  %Y = getelementptr inbounds %"struct.ClipperLib::IntPoint", ptr %pt1a, i32 0, i32 1
  %8 = load i64, ptr %Y, align 8
  %Y2 = getelementptr inbounds %"struct.ClipperLib::IntPoint", ptr %pt1b, i32 0, i32 1
  %9 = load i64, ptr %Y2, align 8
  %sub3 = sub nsw i64 %8, %9
  %call4 = call noundef i64 @_ZN10ClipperLib3AbsEx(i64 noundef %sub3)
  %cmp = icmp sgt i64 %call, %call4
  br i1 %cmp, label %if.then, label %if.else28

if.then:                                          ; preds = %entry
  %X5 = getelementptr inbounds %"struct.ClipperLib::IntPoint", ptr %pt1a, i32 0, i32 0
  %10 = load i64, ptr %X5, align 8
  %X6 = getelementptr inbounds %"struct.ClipperLib::IntPoint", ptr %pt1b, i32 0, i32 0
  %11 = load i64, ptr %X6, align 8
  %cmp7 = icmp sgt i64 %10, %11
  br i1 %cmp7, label %if.then8, label %if.end

if.then8:                                         ; preds = %if.then
  call void @_ZN10ClipperLib10SwapPointsERNS_8IntPointES1_(ptr noundef nonnull align 8 dereferenceable(16) %pt1a, ptr noundef nonnull align 8 dereferenceable(16) %pt1b)
  br label %if.end

if.end:                                           ; preds = %if.then8, %if.then
  %X9 = getelementptr inbounds %"struct.ClipperLib::IntPoint", ptr %pt2a, i32 0, i32 0
  %12 = load i64, ptr %X9, align 8
  %X10 = getelementptr inbounds %"struct.ClipperLib::IntPoint", ptr %pt2b, i32 0, i32 0
  %13 = load i64, ptr %X10, align 8
  %cmp11 = icmp sgt i64 %12, %13
  br i1 %cmp11, label %if.then12, label %if.end13

if.then12:                                        ; preds = %if.end
  call void @_ZN10ClipperLib10SwapPointsERNS_8IntPointES1_(ptr noundef nonnull align 8 dereferenceable(16) %pt2a, ptr noundef nonnull align 8 dereferenceable(16) %pt2b)
  br label %if.end13

if.end13:                                         ; preds = %if.then12, %if.end
  %X14 = getelementptr inbounds %"struct.ClipperLib::IntPoint", ptr %pt1a, i32 0, i32 0
  %14 = load i64, ptr %X14, align 8
  %X15 = getelementptr inbounds %"struct.ClipperLib::IntPoint", ptr %pt2a, i32 0, i32 0
  %15 = load i64, ptr %X15, align 8
  %cmp16 = icmp sgt i64 %14, %15
  br i1 %cmp16, label %if.then17, label %if.else

if.then17:                                        ; preds = %if.end13
  %16 = load ptr, ptr %pt1.addr, align 8
  call void @llvm.memcpy.p0.p0.i64(ptr align 8 %16, ptr align 8 %pt1a, i64 16, i1 false)
  br label %if.end18

if.else:                                          ; preds = %if.end13
  %17 = load ptr, ptr %pt1.addr, align 8
  call void @llvm.memcpy.p0.p0.i64(ptr align 8 %17, ptr align 8 %pt2a, i64 16, i1 false)
  br label %if.end18

if.end18:                                         ; preds = %if.else, %if.then17
  %X19 = getelementptr inbounds %"struct.ClipperLib::IntPoint", ptr %pt1b, i32 0, i32 0
  %18 = load i64, ptr %X19, align 8
  %X20 = getelementptr inbounds %"struct.ClipperLib::IntPoint", ptr %pt2b, i32 0, i32 0
  %19 = load i64, ptr %X20, align 8
  %cmp21 = icmp slt i64 %18, %19
  br i1 %cmp21, label %if.then22, label %if.else23

if.then22:                                        ; preds = %if.end18
  %20 = load ptr, ptr %pt2.addr, align 8
  call void @llvm.memcpy.p0.p0.i64(ptr align 8 %20, ptr align 8 %pt1b, i64 16, i1 false)
  br label %if.end24

if.else23:                                        ; preds = %if.end18
  %21 = load ptr, ptr %pt2.addr, align 8
  call void @llvm.memcpy.p0.p0.i64(ptr align 8 %21, ptr align 8 %pt2b, i64 16, i1 false)
  br label %if.end24

if.end24:                                         ; preds = %if.else23, %if.then22
  %22 = load ptr, ptr %pt1.addr, align 8
  %X25 = getelementptr inbounds %"struct.ClipperLib::IntPoint", ptr %22, i32 0, i32 0
  %23 = load i64, ptr %X25, align 8
  %24 = load ptr, ptr %pt2.addr, align 8
  %X26 = getelementptr inbounds %"struct.ClipperLib::IntPoint", ptr %24, i32 0, i32 0
  %25 = load i64, ptr %X26, align 8
  %cmp27 = icmp slt i64 %23, %25
  store i1 %cmp27, ptr %retval, align 1
  br label %return

if.else28:                                        ; preds = %entry
  %Y29 = getelementptr inbounds %"struct.ClipperLib::IntPoint", ptr %pt1a, i32 0, i32 1
  %26 = load i64, ptr %Y29, align 8
  %Y30 = getelementptr inbounds %"struct.ClipperLib::IntPoint", ptr %pt1b, i32 0, i32 1
  %27 = load i64, ptr %Y30, align 8
  %cmp31 = icmp slt i64 %26, %27
  br i1 %cmp31, label %if.then32, label %if.end33

if.then32:                                        ; preds = %if.else28
  call void @_ZN10ClipperLib10SwapPointsERNS_8IntPointES1_(ptr noundef nonnull align 8 dereferenceable(16) %pt1a, ptr noundef nonnull align 8 dereferenceable(16) %pt1b)
  br label %if.end33

if.end33:                                         ; preds = %if.then32, %if.else28
  %Y34 = getelementptr inbounds %"struct.ClipperLib::IntPoint", ptr %pt2a, i32 0, i32 1
  %28 = load i64, ptr %Y34, align 8
  %Y35 = getelementptr inbounds %"struct.ClipperLib::IntPoint", ptr %pt2b, i32 0, i32 1
  %29 = load i64, ptr %Y35, align 8
  %cmp36 = icmp slt i64 %28, %29
  br i1 %cmp36, label %if.then37, label %if.end38

if.then37:                                        ; preds = %if.end33
  call void @_ZN10ClipperLib10SwapPointsERNS_8IntPointES1_(ptr noundef nonnull align 8 dereferenceable(16) %pt2a, ptr noundef nonnull align 8 dereferenceable(16) %pt2b)
  br label %if.end38

if.end38:                                         ; preds = %if.then37, %if.end33
  %Y39 = getelementptr inbounds %"struct.ClipperLib::IntPoint", ptr %pt1a, i32 0, i32 1
  %30 = load i64, ptr %Y39, align 8
  %Y40 = getelementptr inbounds %"struct.ClipperLib::IntPoint", ptr %pt2a, i32 0, i32 1
  %31 = load i64, ptr %Y40, align 8
  %cmp41 = icmp slt i64 %30, %31
  br i1 %cmp41, label %if.then42, label %if.else43

if.then42:                                        ; preds = %if.end38
  %32 = load ptr, ptr %pt1.addr, align 8
  call void @llvm.memcpy.p0.p0.i64(ptr align 8 %32, ptr align 8 %pt1a, i64 16, i1 false)
  br label %if.end44

if.else43:                                        ; preds = %if.end38
  %33 = load ptr, ptr %pt1.addr, align 8
  call void @llvm.memcpy.p0.p0.i64(ptr align 8 %33, ptr align 8 %pt2a, i64 16, i1 false)
  br label %if.end44

if.end44:                                         ; preds = %if.else43, %if.then42
  %Y45 = getelementptr inbounds %"struct.ClipperLib::IntPoint", ptr %pt1b, i32 0, i32 1
  %34 = load i64, ptr %Y45, align 8
  %Y46 = getelementptr inbounds %"struct.ClipperLib::IntPoint", ptr %pt2b, i32 0, i32 1
  %35 = load i64, ptr %Y46, align 8
  %cmp47 = icmp sgt i64 %34, %35
  br i1 %cmp47, label %if.then48, label %if.else49

if.then48:                                        ; preds = %if.end44
  %36 = load ptr, ptr %pt2.addr, align 8
  call void @llvm.memcpy.p0.p0.i64(ptr align 8 %36, ptr align 8 %pt1b, i64 16, i1 false)
  br label %if.end50

if.else49:                                        ; preds = %if.end44
  %37 = load ptr, ptr %pt2.addr, align 8
  call void @llvm.memcpy.p0.p0.i64(ptr align 8 %37, ptr align 8 %pt2b, i64 16, i1 false)
  br label %if.end50

if.end50:                                         ; preds = %if.else49, %if.then48
  %38 = load ptr, ptr %pt1.addr, align 8
  %Y51 = getelementptr inbounds %"struct.ClipperLib::IntPoint", ptr %38, i32 0, i32 1
  %39 = load i64, ptr %Y51, align 8
  %40 = load ptr, ptr %pt2.addr, align 8
  %Y52 = getelementptr inbounds %"struct.ClipperLib::IntPoint", ptr %40, i32 0, i32 1
  %41 = load i64, ptr %Y52, align 8
  %cmp53 = icmp sgt i64 %39, %41
  store i1 %cmp53, ptr %retval, align 1
  br label %return

return:                                           ; preds = %if.end50, %if.end24
  %42 = load i1, ptr %retval, align 1
  ret i1 %42
}