; Function Attrs: mustprogress nofree norecurse nosync nounwind willreturn memory(argmem: readwrite) uwtable
define hidden noundef zeroext i1 @_ZN10ClipperLib17GetOverlapSegmentENS_8IntPointES0_S0_S0_RS0_S1_(i64 %pt1a.coerce0, i64 %pt1a.coerce1, i64 %pt1b.coerce0, i64 %pt1b.coerce1, i64 %pt2a.coerce0, i64 %pt2a.coerce1, ptr nocapture noundef byval(%"struct.ClipperLib::IntPoint") align 8 %pt2b, ptr nocapture noundef nonnull align 8 dereferenceable(16) %pt1, ptr nocapture noundef nonnull align 8 dereferenceable(16) %pt2) local_unnamed_addr #7 {
entry:
  %sub = sub nsw i64 %pt1a.coerce0, %pt1b.coerce0
  %cond.i = tail call noundef i64 @llvm.abs.i64(i64 %sub, i1 true)
  %sub3 = sub nsw i64 %pt1a.coerce1, %pt1b.coerce1
  %cond.i11 = tail call noundef i64 @llvm.abs.i64(i64 %sub3, i1 true)
  %cmp = icmp ugt i64 %cond.i, %cond.i11
  br i1 %cmp, label %if.then, label %if.else28

if.then:                                          ; preds = %entry
  %cmp7 = icmp sgt i64 %pt1a.coerce0, %pt1b.coerce0
  br i1 %cmp7, label %if.then8, label %if.end

if.then8:                                         ; preds = %if.then
  br label %if.end

if.end:                                           ; preds = %if.then8, %if.then
  %pt1a.sroa.10.0 = phi i64 [ %pt1b.coerce1, %if.then8 ], [ %pt1a.coerce1, %if.then ]
  %pt1a.sroa.0.0 = phi i64 [ %pt1b.coerce0, %if.then8 ], [ %pt1a.coerce0, %if.then ]
  %pt1b.sroa.10.0 = phi i64 [ %pt1a.coerce1, %if.then8 ], [ %pt1b.coerce1, %if.then ]
  %pt1b.sroa.0.0 = phi i64 [ %pt1a.coerce0, %if.then8 ], [ %pt1b.coerce0, %if.then ]
  %0 = load i64, ptr %pt2b, align 8
  %cmp11 = icmp slt i64 %0, %pt2a.coerce0
  br i1 %cmp11, label %if.then12, label %if.end13

if.then12:                                        ; preds = %if.end
  %pt2a.sroa.9.0.pt2b.sroa_idx = getelementptr inbounds i8, ptr %pt2b, i64 8
  %pt2a.sroa.9.0.copyload24 = load i64, ptr %pt2a.sroa.9.0.pt2b.sroa_idx, align 8
  store i64 %pt2a.coerce0, ptr %pt2b, align 8
  store i64 %pt2a.coerce1, ptr %pt2a.sroa.9.0.pt2b.sroa_idx, align 8
  br label %if.end13

if.end13:                                         ; preds = %if.then12, %if.end
  %1 = phi i64 [ %pt2a.coerce0, %if.then12 ], [ %0, %if.end ]
  %pt2a.sroa.9.0 = phi i64 [ %pt2a.sroa.9.0.copyload24, %if.then12 ], [ %pt2a.coerce1, %if.end ]
  %pt2a.sroa.0.0 = phi i64 [ %0, %if.then12 ], [ %pt2a.coerce0, %if.end ]
  %cmp16 = icmp sgt i64 %pt1a.sroa.0.0, %pt2a.sroa.0.0
  %spec.select = tail call i64 @llvm.smax.i64(i64 %pt1a.sroa.0.0, i64 %pt2a.sroa.0.0)
  %spec.select57 = select i1 %cmp16, i64 %pt1a.sroa.10.0, i64 %pt2a.sroa.9.0
  store i64 %spec.select, ptr %pt1, align 8
  %2 = getelementptr inbounds i8, ptr %pt1, i64 8
  store i64 %spec.select57, ptr %2, align 8
  %cmp21 = icmp slt i64 %pt1b.sroa.0.0, %1
  br i1 %cmp21, label %if.then22, label %if.else23

if.then22:                                        ; preds = %if.end13
  store i64 %pt1b.sroa.0.0, ptr %pt2, align 8
  %pt1b.sroa.10.0.pt2.sroa_idx = getelementptr inbounds i8, ptr %pt2, i64 8
  store i64 %pt1b.sroa.10.0, ptr %pt1b.sroa.10.0.pt2.sroa_idx, align 8
  br label %if.end24

if.else23:                                        ; preds = %if.end13
  call void @llvm.memcpy.p0.p0.i64(ptr noundef nonnull align 8 dereferenceable(16) %pt2, ptr noundef nonnull align 8 dereferenceable(16) %pt2b, i64 16, i1 false)
  %.pre56 = load i64, ptr %pt2, align 8
  br label %if.end24

if.end24:                                         ; preds = %if.else23, %if.then22
  %3 = phi i64 [ %.pre56, %if.else23 ], [ %pt1b.sroa.0.0, %if.then22 ]
  %4 = load i64, ptr %pt1, align 8
  %cmp27 = icmp slt i64 %4, %3
  br label %return

if.else28:                                        ; preds = %entry
  %cmp31 = icmp slt i64 %pt1a.coerce1, %pt1b.coerce1
  br i1 %cmp31, label %if.then32, label %if.end33

if.then32:                                        ; preds = %if.else28
  br label %if.end33

if.end33:                                         ; preds = %if.then32, %if.else28
  %pt1a.sroa.10.1 = phi i64 [ %pt1b.coerce1, %if.then32 ], [ %pt1a.coerce1, %if.else28 ]
  %pt1a.sroa.0.1 = phi i64 [ %pt1b.coerce0, %if.then32 ], [ %pt1a.coerce0, %if.else28 ]
  %pt1b.sroa.10.1 = phi i64 [ %pt1a.coerce1, %if.then32 ], [ %pt1b.coerce1, %if.else28 ]
  %pt1b.sroa.0.1 = phi i64 [ %pt1a.coerce0, %if.then32 ], [ %pt1b.coerce0, %if.else28 ]
  %Y35 = getelementptr inbounds i8, ptr %pt2b, i64 8
  %5 = load i64, ptr %Y35, align 8
  %cmp36 = icmp sgt i64 %5, %pt2a.coerce1
  br i1 %cmp36, label %if.then37, label %if.end38

if.then37:                                        ; preds = %if.end33
  %pt2a.sroa.0.0.copyload20 = load i64, ptr %pt2b, align 8
  store i64 %pt2a.coerce0, ptr %pt2b, align 8
  store i64 %pt2a.coerce1, ptr %Y35, align 8
  br label %if.end38

if.end38:                                         ; preds = %if.then37, %if.end33
  %6 = phi i64 [ %pt2a.coerce1, %if.then37 ], [ %5, %if.end33 ]
  %pt2a.sroa.9.1 = phi i64 [ %5, %if.then37 ], [ %pt2a.coerce1, %if.end33 ]
  %pt2a.sroa.0.1 = phi i64 [ %pt2a.sroa.0.0.copyload20, %if.then37 ], [ %pt2a.coerce0, %if.end33 ]
  %cmp41 = icmp slt i64 %pt1a.sroa.10.1, %pt2a.sroa.9.1
  %spec.select58 = select i1 %cmp41, i64 %pt1a.sroa.0.1, i64 %pt2a.sroa.0.1
  %spec.select59 = tail call i64 @llvm.smin.i64(i64 %pt1a.sroa.10.1, i64 %pt2a.sroa.9.1)
  store i64 %spec.select58, ptr %pt1, align 8
  %7 = getelementptr inbounds i8, ptr %pt1, i64 8
  store i64 %spec.select59, ptr %7, align 8
  %cmp47 = icmp sgt i64 %pt1b.sroa.10.1, %6
  %pt1b.sroa.10.0.pt2.sroa_idx36 = getelementptr inbounds i8, ptr %pt2, i64 8
  br i1 %cmp47, label %if.then48, label %if.else49

if.then48:                                        ; preds = %if.end38
  store i64 %pt1b.sroa.0.1, ptr %pt2, align 8
  store i64 %pt1b.sroa.10.1, ptr %pt1b.sroa.10.0.pt2.sroa_idx36, align 8
  br label %if.end50

if.else49:                                        ; preds = %if.end38
  call void @llvm.memcpy.p0.p0.i64(ptr noundef nonnull align 8 dereferenceable(16) %pt2, ptr noundef nonnull align 8 dereferenceable(16) %pt2b, i64 16, i1 false)
  %.pre = load i64, ptr %pt1b.sroa.10.0.pt2.sroa_idx36, align 8
  br label %if.end50

if.end50:                                         ; preds = %if.else49, %if.then48
  %8 = phi i64 [ %.pre, %if.else49 ], [ %pt1b.sroa.10.1, %if.then48 ]
  %9 = load i64, ptr %7, align 8
  %cmp53 = icmp sgt i64 %9, %8
  br label %return

return:                                           ; preds = %if.end50, %if.end24
  %retval.0 = phi i1 [ %cmp27, %if.end24 ], [ %cmp53, %if.end50 ]
  ret i1 %retval.0
}